libinvm-cim.so.1:_Z8classIsANSt7__cxx1112basic_stringIcSt11char_traitsIcESaIcEEES4_
libinvm-cim.so.1:_ZN4wbem9framework10LogMessage10setMessageERKNSt7__cxx1112basic_stringIcSt11char_traitsIcESaIcEEE
libinvm-cim.so.1:_ZN4wbem9framework10LogMessage11setFileNameERKNSt7__cxx1112basic_stringIcSt11char_traitsIcESaIcEEE
libinvm-cim.so.1:_ZN4wbem9framework10LogMessage11setPriorityERKNS1_8PriorityE
libinvm-cim.so.1:_ZN4wbem9framework10LogMessage13setLineNumberERKi
libinvm-cim.so.1:_ZN4wbem9framework10LogMessageC1ENS1_8PriorityENSt7__cxx1112basic_stringIcSt11char_traitsIcESaIcEEE
libinvm-cim.so.1:_ZN4wbem9framework10LogMessageC1Ev
libinvm-cim.so.1:_ZN4wbem9framework10LogMessageC2ENS1_8PriorityENSt7__cxx1112basic_stringIcSt11char_traitsIcESaIcEEE
libinvm-cim.so.1:_ZN4wbem9framework10LogMessageC2Ev
libinvm-cim.so.1:_ZN4wbem9framework10ObjectPath13setObjectPathENSt7__cxx1112basic_stringIcSt11char_traitsIcESaIcEEES7_S7_St3mapIS7_NS0_9AttributeESt4lessIS7_ESaISt4pairIKS7_S9_EEE
libinvm-cim.so.1:_ZN4wbem9framework10ObjectPath5emptyEv
libinvm-cim.so.1:_ZN4wbem9framework10ObjectPathC1ENSt7__cxx1112basic_stringIcSt11char_traitsIcESaIcEEES7_S7_St3mapIS7_NS0_9AttributeESt4lessIS7_ESaISt4pairIKS7_S9_EEE
libinvm-cim.so.1:_ZN4wbem9framework10ObjectPathC1Ev
libinvm-cim.so.1:_ZN4wbem9framework10ObjectPathC2ENSt7__cxx1112basic_stringIcSt11char_traitsIcESaIcEEES7_S7_St3mapIS7_NS0_9AttributeESt4lessIS7_ESaISt4pairIKS7_S9_EEE
libinvm-cim.so.1:_ZN4wbem9framework10ObjectPathC2Ev
libinvm-cim.so.1:_ZN4wbem9framework10ObjectPathD1Ev
libinvm-cim.so.1:_ZN4wbem9framework10ObjectPathD2Ev
libinvm-cim.so.1:_ZN4wbem9framework10ObjectPatheqERKS1_
libinvm-cim.so.1:_ZN4wbem9framework10ObjectPathneERKS1_
libinvm-cim.so.1:_ZN4wbem9framework10StringUtil12removeStringERKNSt7__cxx1112basic_stringIcSt11char_traitsIcESaIcEEES9_
libinvm-cim.so.1:_ZN4wbem9framework10StringUtil13removeStringsERKNSt7__cxx1112basic_stringIcSt11char_traitsIcESaIcEEESt6vectorIS7_SaIS7_EE
libinvm-cim.so.1:_ZN4wbem9framework10StringUtil13stringToInt64ERKNSt7__cxx1112basic_stringIcSt11char_traitsIcESaIcEEE
libinvm-cim.so.1:_ZN4wbem9framework10StringUtil14stringToUint64ERKNSt7__cxx1112basic_stringIcSt11char_traitsIcESaIcEEE
libinvm-cim.so.1:_ZN4wbem9framework10StringUtil23stringCompareIgnoreCaseENSt7__cxx1112basic_stringIcSt11char_traitsIcESaIcEEES7_
libinvm-cim.so.1:_ZN4wbem9framework11CmpiAdapter14sendIndicationERNS0_8InstanceE
libinvm-cim.so.1:_ZN4wbem9framework11CmpiAdapterC1EP12_CMPIContextPK11_CMPIBroker
libinvm-cim.so.1:_ZN4wbem9framework11CmpiAdapterC2EP12_CMPIContextPK11_CMPIBroker
libinvm-cim.so.1:_ZN4wbem9framework11cmpiToIntelEP9_CMPIDatabP11_CMPIStatus
libinvm-cim.so.1:_ZN4wbem9framework11cmpiToIntelEPK15_CMPIObjectPathPK13_CMPIInstanceP11_CMPIStatus
libinvm-cim.so.1:_ZN4wbem9framework11cmpiToIntelEPK15_CMPIObjectPathPNS0_10ObjectPathEP11_CMPIStatus
libinvm-cim.so.1:_ZN4wbem9framework11intelToCmpiEPK11_CMPIBrokerPNS0_10ObjectPathEP11_CMPIStatus
libinvm-cim.so.1:_ZN4wbem9framework11intelToCmpiEPK11_CMPIBrokerPNS0_8InstanceEP11_CMPIStatus
libinvm-cim.so.1:_ZN4wbem9framework11intelToCmpiEPK11_CMPIBrokerPNS0_9AttributeEP9_CMPIDataP11_CMPIStatus
libinvm-cim.so.1:_ZN4wbem9framework13StreamChannel5writeERKNS0_10LogMessageE
libinvm-cim.so.1:_ZN4wbem9framework14WqlConditional14initFromTokensERKSt6vectorINSt7__cxx1112basic_stringIcSt11char_traitsIcESaIcEEESaIS8_EE
libinvm-cim.so.1:_ZN4wbem9framework14WqlConditional23dissectConditionalTokenERKNSt7__cxx1112basic_stringIcSt11char_traitsIcESaIcEEERbRc
libinvm-cim.so.1:_ZN4wbem9framework14WqlConditionalC1ERKNSt7__cxx1112basic_stringIcSt11char_traitsIcESaIcEEE
libinvm-cim.so.1:_ZN4wbem9framework14WqlConditionalC1ERKS1_
libinvm-cim.so.1:_ZN4wbem9framework14WqlConditionalC1ERKSt6vectorINSt7__cxx1112basic_stringIcSt11char_traitsIcESaIcEEESaIS8_EE
libinvm-cim.so.1:_ZN4wbem9framework14WqlConditionalC2ERKNSt7__cxx1112basic_stringIcSt11char_traitsIcESaIcEEE
libinvm-cim.so.1:_ZN4wbem9framework14WqlConditionalC2ERKS1_
libinvm-cim.so.1:_ZN4wbem9framework14WqlConditionalC2ERKSt6vectorINSt7__cxx1112basic_stringIcSt11char_traitsIcESaIcEEESaIS8_EE
libinvm-cim.so.1:_ZN4wbem9framework14WqlConditionalD1Ev
libinvm-cim.so.1:_ZN4wbem9framework14WqlConditionalD2Ev
libinvm-cim.so.1:_ZN4wbem9framework14WqlConditionalaSERKS1_
libinvm-cim.so.1:_ZN4wbem9framework14isAttributeKeyEPNS0_8InstanceENSt7__cxx1112basic_stringIcSt11char_traitsIcESaIcEEE
libinvm-cim.so.1:_ZN4wbem9framework15Generic_CleanupEP15_CMPIInstanceMIPK12_CMPIContexth
libinvm-cim.so.1:_ZN4wbem9framework15InstanceFactory11getInstanceERNS0_10ObjectPathERSt6vectorINSt7__cxx1112basic_stringIcSt11char_traitsIcESaIcEEESaISA_EE
libinvm-cim.so.1:_ZN4wbem9framework15InstanceFactory12getInstancesERSt6vectorINSt7__cxx1112basic_stringIcSt11char_traitsIcESaIcEEESaIS8_EE
libinvm-cim.so.1:_ZN4wbem9framework15InstanceFactory12isAssociatedERKNSt7__cxx1112basic_stringIcSt11char_traitsIcESaIcEEEPNS0_8InstanceESB_
libinvm-cim.so.1:_ZN4wbem9framework15InstanceFactory13executeMethodERjNSt7__cxx1112basic_stringIcSt11char_traitsIcESaIcEEERNS0_10ObjectPathERSt3mapIS8_NS0_9AttributeESt4lessIS8_ESaISt4pairIKS8_SC_EEESK_
libinvm-cim.so.1:_ZN4wbem9framework15InstanceFactory14createInstanceEPNS0_8InstanceE
libinvm-cim.so.1:_ZN4wbem9framework15InstanceFactory14deleteInstanceERNS0_10ObjectPathE
libinvm-cim.so.1:_ZN4wbem9framework15InstanceFactory14modifyInstanceERNS0_10ObjectPathERSt3mapINSt7__cxx1112basic_stringIcSt11char_traitsIcESaIcEEENS0_9AttributeESt4lessISA_ESaISt4pairIKSA_SB_EEE
libinvm-cim.so.1:_ZN4wbem9framework15InstanceFactory14referenceNamesERNS0_10ObjectPathERKNSt7__cxx1112basic_stringIcSt11char_traitsIcESaIcEEESB_SB_SB_
libinvm-cim.so.1:_ZN4wbem9framework15InstanceFactory15associatorNamesERNS0_10ObjectPathERKNSt7__cxx1112basic_stringIcSt11char_traitsIcESaIcEEESB_SB_SB_
libinvm-cim.so.1:_ZN4wbem9framework15InstanceFactory15checkAttributesERSt6vectorINSt7__cxx1112basic_stringIcSt11char_traitsIcESaIcEEESaIS8_EE
libinvm-cim.so.1:_ZN4wbem9framework15InstanceFactory16getInstanceNamesEv
libinvm-cim.so.1:_ZN4wbem9framework15InstanceFactory17containsAttributeERKNSt7__cxx1112basic_stringIcSt11char_traitsIcESaIcEEERKSt6vectorIS7_SaIS7_EE
libinvm-cim.so.1:_ZN4wbem9framework15InstanceFactory18referenceInstancesERNS0_10ObjectPathERKNSt7__cxx1112basic_stringIcSt11char_traitsIcESaIcEEESB_SB_SB_
libinvm-cim.so.1:_ZN4wbem9framework15InstanceFactory19associatorInstancesERNS0_10ObjectPathERKNSt7__cxx1112basic_stringIcSt11char_traitsIcESaIcEEESB_SB_SB_
libinvm-cim.so.1:_ZN4wbem9framework15InstanceFactory9checkPathERKNS0_10ObjectPathE
libinvm-cim.so.1:_ZN4wbem9framework15InstanceFactoryC1ERKNSt7__cxx1112basic_stringIcSt11char_traitsIcESaIcEEE
libinvm-cim.so.1:_ZN4wbem9framework15InstanceFactoryC1ERKS1_
libinvm-cim.so.1:_ZN4wbem9framework15InstanceFactoryC1Ev
libinvm-cim.so.1:_ZN4wbem9framework15InstanceFactoryC2ERKNSt7__cxx1112basic_stringIcSt11char_traitsIcESaIcEEE
libinvm-cim.so.1:_ZN4wbem9framework15InstanceFactoryC2ERKS1_
libinvm-cim.so.1:_ZN4wbem9framework15InstanceFactoryC2Ev
libinvm-cim.so.1:_ZN4wbem9framework15InstanceFactoryD0Ev
libinvm-cim.so.1:_ZN4wbem9framework15InstanceFactoryD1Ev
libinvm-cim.so.1:_ZN4wbem9framework15InstanceFactoryD2Ev
libinvm-cim.so.1:_ZN4wbem9framework15ProviderFactory12getSingletonEv
libinvm-cim.so.1:_ZN4wbem9framework15ProviderFactory12setSingletonEPS1_
libinvm-cim.so.1:_ZN4wbem9framework15ProviderFactory15deleteSingletonEv
libinvm-cim.so.1:_ZN4wbem9framework15ProviderFactory22getDefaultCimNamespaceB5cxx11Ev
libinvm-cim.so.1:_ZN4wbem9framework15ProviderFactory22setDefaultCimNamespaceERKNSt7__cxx1112basic_stringIcSt11char_traitsIcESaIcEEE
libinvm-cim.so.1:_ZN4wbem9framework15ProviderFactory24getInstanceFactoryStaticERKNSt7__cxx1112basic_stringIcSt11char_traitsIcESaIcEEE
libinvm-cim.so.1:_ZN4wbem9framework15ProviderFactory29getAssociationFactoriesStaticEPNS0_8InstanceERKNSt7__cxx1112basic_stringIcSt11char_traitsIcESaIcEEESB_SB_SB_
libinvm-cim.so.1:_ZN4wbem9framework15ProviderFactoryC1Ev
libinvm-cim.so.1:_ZN4wbem9framework15ProviderFactoryC2Ev
libinvm-cim.so.1:_ZN4wbem9framework15ProviderFactoryD0Ev
libinvm-cim.so.1:_ZN4wbem9framework15ProviderFactoryD1Ev
libinvm-cim.so.1:_ZN4wbem9framework15ProviderFactoryD2Ev
libinvm-cim.so.1:_ZN4wbem9framework16Generic_MustPollEP17_CMPIIndicationMIPK12_CMPIContextPK14_CMPISelectExpPKcPK15_CMPIObjectPath
libinvm-cim.so.1:_ZN4wbem9framework17AssociationMapper13simpleFkMatchEPNS0_8InstanceERKNSt7__cxx1112basic_stringIcSt11char_traitsIcESaIcEEES3_SB_
libinvm-cim.so.1:_ZN4wbem9framework17AssociationMapper15filteredFkMatchEPNS0_8InstanceERKNSt7__cxx1112basic_stringIcSt11char_traitsIcESaIcEEERKSt6vectorIS9_SaIS9_EES3_SB_SG_
libinvm-cim.so.1:_ZN4wbem9framework17AssociationMapper15filteredFkMatchEPNS0_8InstanceERKNSt7__cxx1112basic_stringIcSt11char_traitsIcESaIcEEESB_S3_SB_SB_
libinvm-cim.so.1:_ZN4wbem9framework17AssociationMapper18isAssociationClassERKNSt7__cxx1112basic_stringIcSt11char_traitsIcESaIcEEE
libinvm-cim.so.1:_ZN4wbem9framework17AssociationMapper19getAssociationNamesEv
libinvm-cim.so.1:_ZN4wbem9framework17AssociationMapper21populateAttributeListERSt6vectorINSt7__cxx1112basic_stringIcSt11char_traitsIcESaIcEEESaIS8_EE
libinvm-cim.so.1:_ZN4wbem9framework17AssociationMapper24instancesHaveAssociationERKNS0_14associationMapERNS0_8InstanceERNS0_15InstanceFactoryES6_S8_
libinvm-cim.so.1:_ZN4wbem9framework17AssociationMapper25addAssociationObjectPathsERSt6vectorINS0_10ObjectPathESaIS3_EERKNS0_14associationMapE
libinvm-cim.so.1:_ZN4wbem9framework17AssociationMapper25resultClassEmptyOrMatchesERKNS0_14associationMapEbb
libinvm-cim.so.1:_ZN4wbem9framework17AssociationMapper26getInstanceListFromFactoryERNS0_15InstanceFactoryE
libinvm-cim.so.1:_ZN4wbem9framework17AssociationMapper33getInstanceListWithMemberInstanceEv
libinvm-cim.so.1:_ZN4wbem9framework17AssociationMapper40addAssociationObjectPathsForAllInstancesERSt6vectorINS0_10ObjectPathESaIS3_EERKNS0_14associationMapERNS0_15InstanceFactoryESB_
libinvm-cim.so.1:_ZN4wbem9framework17AssociationMapper48addAssociationObjectPathsWithInstanceAsDependentERSt6vectorINS0_10ObjectPathESaIS3_EERKNS0_14associationMapERNS0_15InstanceFactoryESB_
libinvm-cim.so.1:_ZN4wbem9framework17AssociationMapper49addAssociationObjectPathsWithInstanceAsAntecedentERSt6vectorINS0_10ObjectPathESaIS3_EERKNS0_14associationMapERNS0_15InstanceFactoryESB_
libinvm-cim.so.1:_ZN4wbem9framework17AssociationMapper71addValidObjectPathsForAssociationBetweenAntecedentAndDependentInstancesERSt6vectorINS0_10ObjectPathESaIS3_EERKNS0_14associationMapERS2_INS0_8InstanceESaISA_EERNS0_15InstanceFactoryESD_SF_
libinvm-cim.so.1:_ZN4wbem9framework17AssociationMapperC1EPNS0_22InstanceFactoryCreatorESt3mapINSt7__cxx1112basic_stringIcSt11char_traitsIcESaIcEEENS0_16associationClassESt4lessISA_ESaISt4pairIKSA_SB_EEESt6vectorINS0_14associationMapESaISK_EESA_PNS0_8InstanceERSF_SP_SP_SP_
libinvm-cim.so.1:_ZN4wbem9framework17AssociationMapperC1ERKS1_
libinvm-cim.so.1:_ZN4wbem9framework17AssociationMapperC2EPNS0_22InstanceFactoryCreatorESt3mapINSt7__cxx1112basic_stringIcSt11char_traitsIcESaIcEEENS0_16associationClassESt4lessISA_ESaISt4pairIKSA_SB_EEESt6vectorINS0_14associationMapESaISK_EESA_PNS0_8InstanceERSF_SP_SP_SP_
libinvm-cim.so.1:_ZN4wbem9framework17AssociationMapperC2ERKS1_
libinvm-cim.so.1:_ZN4wbem9framework17AssociationMapperD0Ev
libinvm-cim.so.1:_ZN4wbem9framework17AssociationMapperD1Ev
libinvm-cim.so.1:_ZN4wbem9framework17AssociationMapperD2Ev
libinvm-cim.so.1:_ZN4wbem9framework17AssociationMapperaSERKS1_
libinvm-cim.so.1:_ZN4wbem9framework17ExceptionNoMemoryC1EPKcS3_S3_
libinvm-cim.so.1:_ZN4wbem9framework17ExceptionNoMemoryC2EPKcS3_S3_
libinvm-cim.so.1:_ZN4wbem9framework17Generic_ExecQueryEP15_CMPIInstanceMIPK12_CMPIContextPK11_CMPIResultPK15_CMPIObjectPathPKcSD_
libinvm-cim.so.1:_ZN4wbem9framework17IndicationServiceC1Ev
libinvm-cim.so.1:_ZN4wbem9framework17IndicationServiceC2Ev
libinvm-cim.so.1:_ZN4wbem9framework17ObjectPathBuilder15ParseObjectPathENSt7__cxx1112basic_stringIcSt11char_traitsIcESaIcEEE
libinvm-cim.so.1:_ZN4wbem9framework17ObjectPathBuilder18ParseNamespacePathENSt7__cxx1112basic_stringIcSt11char_traitsIcESaIcEEE
libinvm-cim.so.1:_ZN4wbem9framework17ObjectPathBuilder5BuildEPNS0_10ObjectPathE
libinvm-cim.so.1:_ZN4wbem9framework17ObjectPathBuilder5ParseEv
libinvm-cim.so.1:_ZN4wbem9framework17ObjectPathBuilderC1ERKNSt7__cxx1112basic_stringIcSt11char_traitsIcESaIcEEE
libinvm-cim.so.1:_ZN4wbem9framework17ObjectPathBuilderC2ERKNSt7__cxx1112basic_stringIcSt11char_traitsIcESaIcEEE
libinvm-cim.so.1:_ZN4wbem9framework18AssociationFactory11getInstanceERNS0_10ObjectPathERSt6vectorINSt7__cxx1112basic_stringIcSt11char_traitsIcESaIcEEESaISA_EE
libinvm-cim.so.1:_ZN4wbem9framework18AssociationFactory12initClassMapEv
libinvm-cim.so.1:_ZN4wbem9framework18AssociationFactory13addClassToMapERKNSt7__cxx1112basic_stringIcSt11char_traitsIcESaIcEEES9_S9_
libinvm-cim.so.1:_ZN4wbem9framework18AssociationFactory13simpleFkMatchEPNS0_8InstanceERKNSt7__cxx1112basic_stringIcSt11char_traitsIcESaIcEEES3_SB_
libinvm-cim.so.1:_ZN4wbem9framework18AssociationFactory15filteredFkMatchEPNS0_8InstanceERKNSt7__cxx1112basic_stringIcSt11char_traitsIcESaIcEEERKSt6vectorIS9_SaIS9_EES3_SB_SG_
libinvm-cim.so.1:_ZN4wbem9framework18AssociationFactory15filteredFkMatchEPNS0_8InstanceERKNSt7__cxx1112basic_stringIcSt11char_traitsIcESaIcEEESB_S3_SB_SB_
libinvm-cim.so.1:_ZN4wbem9framework18AssociationFactory16getInstanceNamesEv
libinvm-cim.so.1:_ZN4wbem9framework18AssociationFactory18isAssociationClassERKNSt7__cxx1112basic_stringIcSt11char_traitsIcESaIcEEE
libinvm-cim.so.1:_ZN4wbem9framework18AssociationFactory20initAssociationTableEv
libinvm-cim.so.1:_ZN4wbem9framework18AssociationFactory21addAssociationToTableERKNSt7__cxx1112basic_stringIcSt11char_traitsIcESaIcEEENS0_15associationTypeES9_S9_S9_S9_
libinvm-cim.so.1:_ZN4wbem9framework18AssociationFactory21populateAttributeListERSt6vectorINSt7__cxx1112basic_stringIcSt11char_traitsIcESaIcEEESaIS8_EE
libinvm-cim.so.1:_ZN4wbem9framework18AssociationFactory39markInstanceAttributesAsAssociationRefsERNS0_8InstanceE
libinvm-cim.so.1:_ZN4wbem9framework18AssociationFactoryC1EPNS0_8InstanceERKNSt7__cxx1112basic_stringIcSt11char_traitsIcESaIcEEESB_SB_SB_
libinvm-cim.so.1:_ZN4wbem9framework18AssociationFactoryC1ERKS1_
libinvm-cim.so.1:_ZN4wbem9framework18AssociationFactoryC2EPNS0_8InstanceERKNSt7__cxx1112basic_stringIcSt11char_traitsIcESaIcEEESB_SB_SB_
libinvm-cim.so.1:_ZN4wbem9framework18AssociationFactoryC2ERKS1_
libinvm-cim.so.1:_ZN4wbem9framework18AssociationFactoryD0Ev
libinvm-cim.so.1:_ZN4wbem9framework18AssociationFactoryD1Ev
libinvm-cim.so.1:_ZN4wbem9framework18AssociationFactoryD2Ev
libinvm-cim.so.1:_ZN4wbem9framework18AssociationFactoryaSERKS1_
libinvm-cim.so.1:_ZN4wbem9framework18Generic_ReferencesEP18_CMPIAssociationMIPK12_CMPIContextPK11_CMPIResultPK15_CMPIObjectPathPKcSD_PSD_
libinvm-cim.so.1:_ZN4wbem9framework19Generic_AssociatorsEP18_CMPIAssociationMIPK12_CMPIContextPK11_CMPIResultPK15_CMPIObjectPathPKcSD_SD_SD_PSD_
libinvm-cim.so.1:_ZN4wbem9framework19Generic_GetInstanceEP15_CMPIInstanceMIPK12_CMPIContextPK11_CMPIResultPK15_CMPIObjectPathPPKc
libinvm-cim.so.1:_ZN4wbem9framework19NullInstanceFactory12isAssociatedERKNSt7__cxx1112basic_stringIcSt11char_traitsIcESaIcEEEPNS0_8InstanceESB_
libinvm-cim.so.1:_ZN4wbem9framework19NullInstanceFactory16getInstanceNamesEv
libinvm-cim.so.1:_ZN4wbem9framework19NullInstanceFactory21populateAttributeListERSt6vectorINSt7__cxx1112basic_stringIcSt11char_traitsIcESaIcEEESaIS8_EE
libinvm-cim.so.1:_ZN4wbem9framework19NullInstanceFactoryD0Ev
libinvm-cim.so.1:_ZN4wbem9framework19NullInstanceFactoryD1Ev
libinvm-cim.so.1:_ZN4wbem9framework19NullInstanceFactoryD2Ev
libinvm-cim.so.1:_ZN4wbem9framework20ExceptionSystemError12getErrorCodeEv
libinvm-cim.so.1:_ZN4wbem9framework20ExceptionSystemErrorC1Ei
libinvm-cim.so.1:_ZN4wbem9framework20ExceptionSystemErrorC2Ei
libinvm-cim.so.1:_ZN4wbem9framework20Generic_InvokeMethodEP13_CMPIMethodMIPK12_CMPIContextPK11_CMPIResultPK15_CMPIObjectPathPKcPK9_CMPIArgsPSE_
libinvm-cim.so.1:_ZN4wbem9framework20InstanceProviderInitEv
libinvm-cim.so.1:_ZN4wbem9framework21ExceptionBadAttribute15getBadAttributeB5cxx11Ev
libinvm-cim.so.1:_ZN4wbem9framework21ExceptionBadAttributeC1EPKc
libinvm-cim.so.1:_ZN4wbem9framework21ExceptionBadAttributeC2EPKc
libinvm-cim.so.1:_ZN4wbem9framework21ExceptionBadParameter15getBadParameterB5cxx11Ev
libinvm-cim.so.1:_ZN4wbem9framework21ExceptionBadParameterC1EPKc
libinvm-cim.so.1:_ZN4wbem9framework21ExceptionBadParameterC2EPKc
libinvm-cim.so.1:_ZN4wbem9framework21ExceptionNotSupportedC1EPKcS3_
libinvm-cim.so.1:_ZN4wbem9framework21ExceptionNotSupportedC2EPKcS3_
libinvm-cim.so.1:_ZN4wbem9framework21Generic_EnumInstancesEP15_CMPIInstanceMIPK12_CMPIContextPK11_CMPIResultPK15_CMPIObjectPathPPKc
libinvm-cim.so.1:_ZN4wbem9framework21Generic_MethodCleanupEP13_CMPIMethodMIPK12_CMPIContexth
libinvm-cim.so.1:_ZN4wbem9framework21getModifiedAttributesB5cxx11EPNS0_8InstanceES2_
libinvm-cim.so.1:_ZN4wbem9framework22Generic_ActivateFilterEP17_CMPIIndicationMIPK12_CMPIContextPK14_CMPISelectExpPKcPK15_CMPIObjectPathh
libinvm-cim.so.1:_ZN4wbem9framework22Generic_CreateInstanceEP15_CMPIInstanceMIPK12_CMPIContextPK11_CMPIResultPK15_CMPIObjectPathPK13_CMPIInstance
libinvm-cim.so.1:_ZN4wbem9framework22Generic_DeleteInstanceEP15_CMPIInstanceMIPK12_CMPIContextPK11_CMPIResultPK15_CMPIObjectPath
libinvm-cim.so.1:_ZN4wbem9framework22Generic_ModifyInstanceEP15_CMPIInstanceMIPK12_CMPIContextPK11_CMPIResultPK15_CMPIObjectPathPK13_CMPIInstancePPKc
libinvm-cim.so.1:_ZN4wbem9framework22Generic_ReferenceNamesEP18_CMPIAssociationMIPK12_CMPIContextPK11_CMPIResultPK15_CMPIObjectPathPKcSD_
libinvm-cim.so.1:_ZN4wbem9framework23Generic_AssociatorNamesEP18_CMPIAssociationMIPK12_CMPIContextPK11_CMPIResultPK15_CMPIObjectPathPKcSD_SD_SD_
libinvm-cim.so.1:_ZN4wbem9framework23Generic_AuthorizeFilterEP17_CMPIIndicationMIPK12_CMPIContextPK14_CMPISelectExpPKcPK15_CMPIObjectPathSA_
libinvm-cim.so.1:_ZN4wbem9framework24ExceptionInvalidWqlQueryC1ENS1_16InvalidWqlReasonERKNSt7__cxx1112basic_stringIcSt11char_traitsIcESaIcEEE
libinvm-cim.so.1:_ZN4wbem9framework24ExceptionInvalidWqlQueryC2ENS1_16InvalidWqlReasonERKNSt7__cxx1112basic_stringIcSt11char_traitsIcESaIcEEE
libinvm-cim.so.1:_ZN4wbem9framework24ExceptionInvalidWqlQueryD0Ev
libinvm-cim.so.1:_ZN4wbem9framework24ExceptionInvalidWqlQueryD1Ev
libinvm-cim.so.1:_ZN4wbem9framework24ExceptionInvalidWqlQueryD2Ev
libinvm-cim.so.1:_ZN4wbem9framework24Generic_DeActivateFilterEP17_CMPIIndicationMIPK12_CMPIContextPK14_CMPISelectExpPKcPK15_CMPIObjectPathh
libinvm-cim.so.1:_ZN4wbem9framework25Generic_EnableIndicationsEP17_CMPIIndicationMIPK12_CMPIContext
libinvm-cim.so.1:_ZN4wbem9framework25Generic_EnumInstanceNamesEP15_CMPIInstanceMIPK12_CMPIContextPK11_CMPIResultPK15_CMPIObjectPath
libinvm-cim.so.1:_ZN4wbem9framework25Generic_IndicationCleanupEP17_CMPIIndicationMIPK12_CMPIContexth
libinvm-cim.so.1:_ZN4wbem9framework26Generic_AssociationCleanupEP18_CMPIAssociationMIPK12_CMPIContexth
libinvm-cim.so.1:_ZN4wbem9framework26Generic_DisableIndicationsEP17_CMPIIndicationMIPK12_CMPIContext
libinvm-cim.so.1:_ZN4wbem9framework5TraceC1EPKcS3_RKi
libinvm-cim.so.1:_ZN4wbem9framework5TraceC2EPKcS3_RKi
libinvm-cim.so.1:_ZN4wbem9framework5TraceD1Ev
libinvm-cim.so.1:_ZN4wbem9framework5TraceD2Ev
libinvm-cim.so.1:_ZN4wbem9framework6CimXml12enumToStringB5cxx11ENS0_8DataTypeE
libinvm-cim.so.1:_ZN4wbem9framework6CimXml12stringToEnumENSt7__cxx1112basic_stringIcSt11char_traitsIcESaIcEEE
libinvm-cim.so.1:_ZN4wbem9framework6CimXml13getPropertiesB5cxx11Ev
libinvm-cim.so.1:_ZN4wbem9framework6CimXml15createAttributeENSt7__cxx1112basic_stringIcSt11char_traitsIcESaIcEEEPN8rapidxml8xml_nodeIcEEbb
libinvm-cim.so.1:_ZN4wbem9framework6CimXml18generateAttributesEPKN8rapidxml8xml_nodeIcEENSt7__cxx1112basic_stringIcSt11char_traitsIcESaIcEEESC_
libinvm-cim.so.1:_ZN4wbem9framework6CimXml21stringToAttributeTypeENSt7__cxx1112basic_stringIcSt11char_traitsIcESaIcEEEb
libinvm-cim.so.1:_ZN4wbem9framework6CimXml8getClassB5cxx11Ev
libinvm-cim.so.1:_ZN4wbem9framework6CimXml8setupMapEv
libinvm-cim.so.1:_ZN4wbem9framework6CimXml9toBooleanENSt7__cxx1112basic_stringIcSt11char_traitsIcESaIcEEE
libinvm-cim.so.1:_ZN4wbem9framework6CimXmlC1ENSt7__cxx1112basic_stringIcSt11char_traitsIcESaIcEEE
libinvm-cim.so.1:_ZN4wbem9framework6CimXmlC2ENSt7__cxx1112basic_stringIcSt11char_traitsIcESaIcEEE
libinvm-cim.so.1:_ZN4wbem9framework6Logger10getChannelEv
libinvm-cim.so.1:_ZN4wbem9framework6Logger10setChannelEPNS0_14LogChannelBaseE
libinvm-cim.so.1:_ZN4wbem9framework6Logger3logERKNS0_10LogMessage8PriorityERKNSt7__cxx1112basic_stringIcSt11char_traitsIcESaIcEEE
libinvm-cim.so.1:_ZN4wbem9framework6Logger3logERKNS0_10LogMessageE
libinvm-cim.so.1:_ZN4wbem9framework6Logger5flushEv
libinvm-cim.so.1:_ZN4wbem9framework6Logger5traceERKNSt7__cxx1112basic_stringIcSt11char_traitsIcESaIcEEE
libinvm-cim.so.1:_ZN4wbem9framework6Logger5traceERKNSt7__cxx1112basic_stringIcSt11char_traitsIcESaIcEEES9_RKi
libinvm-cim.so.1:_ZN4wbem9framework6Logger8setLevelERKNS0_10LogMessage8PriorityE
libinvm-cim.so.1:_ZN4wbem9framework8Instance12setAttributeERKNSt7__cxx1112basic_stringIcSt11char_traitsIcESaIcEEERKNS0_9AttributeE
libinvm-cim.so.1:_ZN4wbem9framework8Instance12setAttributeERKNSt7__cxx1112basic_stringIcSt11char_traitsIcESaIcEEERKNS0_9AttributeERKSt6vectorIS7_SaIS7_EE
libinvm-cim.so.1:_ZN4wbem9framework8InstanceC1ENSt7__cxx1112basic_stringIcSt11char_traitsIcESaIcEEE
libinvm-cim.so.1:_ZN4wbem9framework8InstanceC1ERNS0_10ObjectPathE
libinvm-cim.so.1:_ZN4wbem9framework8InstanceC1Ev
libinvm-cim.so.1:_ZN4wbem9framework8InstanceC2ENSt7__cxx1112basic_stringIcSt11char_traitsIcESaIcEEE
libinvm-cim.so.1:_ZN4wbem9framework8InstanceC2ERNS0_10ObjectPathE
libinvm-cim.so.1:_ZN4wbem9framework8InstanceC2Ev
libinvm-cim.so.1:_ZN4wbem9framework8WqlQuery12isWqlKeywordERKNSt7__cxx1112basic_stringIcSt11char_traitsIcESaIcEEE
libinvm-cim.so.1:_ZN4wbem9framework8WqlQuery13initFromQueryERKNSt7__cxx1112basic_stringIcSt11char_traitsIcESaIcEEE
libinvm-cim.so.1:_ZN4wbem9framework8WqlQuery14isValidCimNameERKNSt7__cxx1112basic_stringIcSt11char_traitsIcESaIcEEE
libinvm-cim.so.1:_ZN4wbem9framework8WqlQuery16processClassNameERKNSt7__cxx1112basic_stringIcSt11char_traitsIcESaIcEEE
libinvm-cim.so.1:_ZN4wbem9framework8WqlQuery18processConditionalERKSt6vectorINSt7__cxx1112basic_stringIcSt11char_traitsIcESaIcEEESaIS8_EE
libinvm-cim.so.1:_ZN4wbem9framework8WqlQuery19isValidCimClassNameERKNSt7__cxx1112basic_stringIcSt11char_traitsIcESaIcEEE
libinvm-cim.so.1:_ZN4wbem9framework8WqlQuery23processSelectAttributesERKSt6vectorINSt7__cxx1112basic_stringIcSt11char_traitsIcESaIcEEESaIS8_EE
libinvm-cim.so.1:_ZN4wbem9framework8WqlQueryC1ERKNSt7__cxx1112basic_stringIcSt11char_traitsIcESaIcEEE
libinvm-cim.so.1:_ZN4wbem9framework8WqlQueryC1ERKS1_
libinvm-cim.so.1:_ZN4wbem9framework8WqlQueryC2ERKNSt7__cxx1112basic_stringIcSt11char_traitsIcESaIcEEE
libinvm-cim.so.1:_ZN4wbem9framework8WqlQueryC2ERKS1_
libinvm-cim.so.1:_ZN4wbem9framework8WqlQueryD0Ev
libinvm-cim.so.1:_ZN4wbem9framework8WqlQueryD1Ev
libinvm-cim.so.1:_ZN4wbem9framework8WqlQueryD2Ev
libinvm-cim.so.1:_ZN4wbem9framework8WqlQueryaSERKS1_
libinvm-cim.so.1:_ZN4wbem9framework9Attribute10isEmbeddedEv
libinvm-cim.so.1:_ZN4wbem9framework9Attribute10typesMatchENS0_8DataTypeES2_
libinvm-cim.so.1:_ZN4wbem9framework9Attribute13setIsEmbeddedEb
libinvm-cim.so.1:_ZN4wbem9framework9Attribute26isAssociationClassInstanceEv
libinvm-cim.so.1:_ZN4wbem9framework9Attribute29setIsAssociationClassInstanceEb
libinvm-cim.so.1:_ZN4wbem9framework9Attribute7trimStrERNSt7__cxx1112basic_stringIcSt11char_traitsIcESaIcEEE
libinvm-cim.so.1:_ZN4wbem9framework9Attribute8setIsKeyEb
libinvm-cim.so.1:_ZN4wbem9framework9Attribute9normalizeEv
libinvm-cim.so.1:_ZN4wbem9framework9AttributeC1EPKcNS0_15DatetimeSubtypeEb
libinvm-cim.so.1:_ZN4wbem9framework9AttributeC1EPKcb
libinvm-cim.so.1:_ZN4wbem9framework9AttributeC1ERKNSt7__cxx1112basic_stringIcSt11char_traitsIcESaIcEEENS0_15DatetimeSubtypeEb
libinvm-cim.so.1:_ZN4wbem9framework9AttributeC1ERKNSt7__cxx1112basic_stringIcSt11char_traitsIcESaIcEEEb
libinvm-cim.so.1:_ZN4wbem9framework9AttributeC1ERKS1_
libinvm-cim.so.1:_ZN4wbem9framework9AttributeC1ESt6vectorINSt7__cxx1112basic_stringIcSt11char_traitsIcESaIcEEESaIS8_EEb
libinvm-cim.so.1:_ZN4wbem9framework9AttributeC1ESt6vectorIbSaIbEEb
libinvm-cim.so.1:_ZN4wbem9framework9AttributeC1ESt6vectorIhSaIhEEb
libinvm-cim.so.1:_ZN4wbem9framework9AttributeC1ESt6vectorIjSaIjEEb
libinvm-cim.so.1:_ZN4wbem9framework9AttributeC1ESt6vectorItSaItEEb
libinvm-cim.so.1:_ZN4wbem9framework9AttributeC1ESt6vectorIySaIyEEb
libinvm-cim.so.1:_ZN4wbem9framework9AttributeC1Ebb
libinvm-cim.so.1:_ZN4wbem9framework9AttributeC1Ecb
libinvm-cim.so.1:_ZN4wbem9framework9AttributeC1Efb
libinvm-cim.so.1:_ZN4wbem9framework9AttributeC1Ehb
libinvm-cim.so.1:_ZN4wbem9framework9AttributeC1Eib
libinvm-cim.so.1:_ZN4wbem9framework9AttributeC1EjNSt7__cxx1112basic_stringIcSt11char_traitsIcESaIcEEEb
libinvm-cim.so.1:_ZN4wbem9framework9AttributeC1Ejb
libinvm-cim.so.1:_ZN4wbem9framework9AttributeC1Esb
libinvm-cim.so.1:_ZN4wbem9framework9AttributeC1EtNSt7__cxx1112basic_stringIcSt11char_traitsIcESaIcEEEb
libinvm-cim.so.1:_ZN4wbem9framework9AttributeC1Etb
libinvm-cim.so.1:_ZN4wbem9framework9AttributeC1Exb
libinvm-cim.so.1:_ZN4wbem9framework9AttributeC1EyNS0_15DatetimeSubtypeEb
libinvm-cim.so.1:_ZN4wbem9framework9AttributeC1Eyb
libinvm-cim.so.1:_ZN4wbem9framework9AttributeC2EPKcNS0_15DatetimeSubtypeEb
libinvm-cim.so.1:_ZN4wbem9framework9AttributeC2EPKcb
libinvm-cim.so.1:_ZN4wbem9framework9AttributeC2ERKNSt7__cxx1112basic_stringIcSt11char_traitsIcESaIcEEENS0_15DatetimeSubtypeEb
libinvm-cim.so.1:_ZN4wbem9framework9AttributeC2ERKNSt7__cxx1112basic_stringIcSt11char_traitsIcESaIcEEEb
libinvm-cim.so.1:_ZN4wbem9framework9AttributeC2ERKS1_
libinvm-cim.so.1:_ZN4wbem9framework9AttributeC2ESt6vectorINSt7__cxx1112basic_stringIcSt11char_traitsIcESaIcEEESaIS8_EEb
libinvm-cim.so.1:_ZN4wbem9framework9AttributeC2ESt6vectorIbSaIbEEb
libinvm-cim.so.1:_ZN4wbem9framework9AttributeC2ESt6vectorIhSaIhEEb
libinvm-cim.so.1:_ZN4wbem9framework9AttributeC2ESt6vectorIjSaIjEEb
libinvm-cim.so.1:_ZN4wbem9framework9AttributeC2ESt6vectorItSaItEEb
libinvm-cim.so.1:_ZN4wbem9framework9AttributeC2ESt6vectorIySaIyEEb
libinvm-cim.so.1:_ZN4wbem9framework9AttributeC2Ebb
libinvm-cim.so.1:_ZN4wbem9framework9AttributeC2Ecb
libinvm-cim.so.1:_ZN4wbem9framework9AttributeC2Efb
libinvm-cim.so.1:_ZN4wbem9framework9AttributeC2Ehb
libinvm-cim.so.1:_ZN4wbem9framework9AttributeC2Eib
libinvm-cim.so.1:_ZN4wbem9framework9AttributeC2EjNSt7__cxx1112basic_stringIcSt11char_traitsIcESaIcEEEb
libinvm-cim.so.1:_ZN4wbem9framework9AttributeC2Ejb
libinvm-cim.so.1:_ZN4wbem9framework9AttributeC2Esb
libinvm-cim.so.1:_ZN4wbem9framework9AttributeC2EtNSt7__cxx1112basic_stringIcSt11char_traitsIcESaIcEEEb
libinvm-cim.so.1:_ZN4wbem9framework9AttributeC2Etb
libinvm-cim.so.1:_ZN4wbem9framework9AttributeC2Exb
libinvm-cim.so.1:_ZN4wbem9framework9AttributeC2EyNS0_15DatetimeSubtypeEb
libinvm-cim.so.1:_ZN4wbem9framework9AttributeC2Eyb
libinvm-cim.so.1:_ZN4wbem9framework9AttributeD1Ev
libinvm-cim.so.1:_ZN4wbem9framework9AttributeD2Ev
libinvm-cim.so.1:_ZN4wbem9framework9AttributeaSERKS1_
libinvm-cim.so.1:_ZN4wbem9framework9Exception15logDebugMessageEv
libinvm-cim.so.1:_ZN4wbem9framework9ExceptionC1ERKNSt7__cxx1112basic_stringIcSt11char_traitsIcESaIcEEE
libinvm-cim.so.1:_ZN4wbem9framework9ExceptionC1Ev
libinvm-cim.so.1:_ZN4wbem9framework9ExceptionC2ERKNSt7__cxx1112basic_stringIcSt11char_traitsIcESaIcEEE
libinvm-cim.so.1:_ZN4wbem9framework9ExceptionC2Ev
libinvm-cim.so.1:_ZN4wbem9framework9ExceptionD0Ev
libinvm-cim.so.1:_ZN4wbem9framework9ExceptionD1Ev
libinvm-cim.so.1:_ZN4wbem9framework9ExceptionD2Ev
libinvm-cim.so.1:_ZNK4wbem9framework10LogMessage10getMessageB5cxx11Ev
libinvm-cim.so.1:_ZNK4wbem9framework10LogMessage11getFileNameB5cxx11Ev
libinvm-cim.so.1:_ZNK4wbem9framework10LogMessage11getPriorityEv
libinvm-cim.so.1:_ZNK4wbem9framework10LogMessage13getLineNumberEv
libinvm-cim.so.1:_ZNK4wbem9framework10ObjectPath11getKeyValueERKNSt7__cxx1112basic_stringIcSt11char_traitsIcESaIcEEE
libinvm-cim.so.1:_ZNK4wbem9framework10ObjectPath12getNamespaceB5cxx11Ev
libinvm-cim.so.1:_ZNK4wbem9framework10ObjectPath7getHostB5cxx11Ev
libinvm-cim.so.1:_ZNK4wbem9framework10ObjectPath7getKeysB5cxx11Ev
libinvm-cim.so.1:_ZNK4wbem9framework10ObjectPath8asStringB5cxx11Eb
libinvm-cim.so.1:_ZNK4wbem9framework10ObjectPath8checkKeyERKNSt7__cxx1112basic_stringIcSt11char_traitsIcESaIcEEES9_
libinvm-cim.so.1:_ZNK4wbem9framework10ObjectPath8getClassB5cxx11Ev
libinvm-cim.so.1:_ZNK4wbem9framework6Logger8getLevelEv
libinvm-cim.so.1:_ZNK4wbem9framework8Instance12getAttributeERKNSt7__cxx1112basic_stringIcSt11char_traitsIcESaIcEEERNS0_9AttributeE
libinvm-cim.so.1:_ZNK4wbem9framework8Instance12getNamespaceB5cxx11Ev
libinvm-cim.so.1:_ZNK4wbem9framework8Instance13attributesEndB5cxx11Ev
libinvm-cim.so.1:_ZNK4wbem9framework8Instance13getAttributeIERNSt7__cxx1112basic_stringIcSt11char_traitsIcESaIcEEERNS0_9AttributeE
libinvm-cim.so.1:_ZNK4wbem9framework8Instance13getObjectPathEv
libinvm-cim.so.1:_ZNK4wbem9framework8Instance15attributesBeginB5cxx11Ev
libinvm-cim.so.1:_ZNK4wbem9framework8Instance15attributesCountEv
libinvm-cim.so.1:_ZNK4wbem9framework8Instance7getHostB5cxx11Ev
libinvm-cim.so.1:_ZNK4wbem9framework8Instance8getClassB5cxx11Ev
libinvm-cim.so.1:_ZNK4wbem9framework8Instance9getCimXmlB5cxx11Ev
libinvm-cim.so.1:_ZNK4wbem9framework8InstanceeqERKS1_
libinvm-cim.so.1:_ZNK4wbem9framework8InstanceneERKS1_
libinvm-cim.so.1:_ZNK4wbem9framework8WqlQuery5parseERKNSt7__cxx1112basic_stringIcSt11char_traitsIcESaIcEEERS7_RSt6vectorIS7_SaIS7_EESE_
libinvm-cim.so.1:_ZNK4wbem9framework9Attribute11real32ValueEv
libinvm-cim.so.1:_ZNK4wbem9framework9Attribute11sint64ValueEv
libinvm-cim.so.1:_ZNK4wbem9framework9Attribute11stringValueB5cxx11Ev
libinvm-cim.so.1:_ZNK4wbem9framework9Attribute11uint64ValueEv
libinvm-cim.so.1:_ZNK4wbem9framework9Attribute12strListValueB5cxx11Ev
libinvm-cim.so.1:_ZNK4wbem9framework9Attribute14uint8ListValueEv
libinvm-cim.so.1:_ZNK4wbem9framework9Attribute15uint16ListValueEv
libinvm-cim.so.1:_ZNK4wbem9framework9Attribute15uint32ListValueEv
libinvm-cim.so.1:_ZNK4wbem9framework9Attribute15uint64ListValueEv
libinvm-cim.so.1:_ZNK4wbem9framework9Attribute16booleanListValueEv
libinvm-cim.so.1:_ZNK4wbem9framework9Attribute5asStrB5cxx11Ev
libinvm-cim.so.1:_ZNK4wbem9framework9Attribute5asStrENSt7__cxx1112basic_stringIcSt11char_traitsIcESaIcEEES7_S7_
libinvm-cim.so.1:_ZNK4wbem9framework9Attribute5isKeyEv
libinvm-cim.so.1:_ZNK4wbem9framework9Attribute7getTypeEv
libinvm-cim.so.1:_ZNK4wbem9framework9Attribute7isArrayEv
libinvm-cim.so.1:_ZNK4wbem9framework9Attribute8intValueEv
libinvm-cim.so.1:_ZNK4wbem9framework9Attribute9boolValueEv
libinvm-cim.so.1:_ZNK4wbem9framework9Attribute9isNumericEv
libinvm-cim.so.1:_ZNK4wbem9framework9Attribute9uintValueEv
libinvm-cim.so.1:_ZNK4wbem9framework9AttributeeqERKS1_
libinvm-cim.so.1:_ZNK4wbem9framework9AttributeneERKS1_
libinvm-cim.so.1:_ZNK4wbem9framework9Exception4whatEv
libinvm-cim.so.1:build_fw_revision
libinvm-cim.so.1:build_revision
libinvm-cim.so.1:convert_datetime_string_to_seconds
libinvm-cim.so.1:convert_seconds_to_datetime
libinvm-cim.so.1:convert_seconds_to_datetime_interval
libinvm-cim.so.1:format_fw_revision
libinvm-cim.so.1:format_revision
libinvm-cim.so.1:get_current_datetime
libinvm-cim.so.1:get_current_time_msec
libinvm-cim.so.1:get_timezone_diff
libinvm-cim.so.1:get_tm_tzd_mins
libinvm-cim.so.1:make_message
libinvm-cim.so.1:parse_fw_revision
libinvm-cim.so.1:parse_main_revision
libinvm-cim.so.1:parse_revision
libinvm-cim.so.1:return_datetime_interval_seconds
libinvm-cim.so.1:return_datetime_seconds
libinvm-cim.so.1:s_digitstrtouc
libinvm-cim.so.1:s_snprintf
libinvm-cim.so.1:s_strcat
libinvm-cim.so.1:s_strcpy
libinvm-cim.so.1:s_strncat
libinvm-cim.so.1:s_strncmp
libinvm-cim.so.1:s_strncmpi
libinvm-cim.so.1:s_strncpy
libinvm-cim.so.1:s_strncpy_unterm
libinvm-cim.so.1:s_strnlen
libinvm-cim.so.1:s_strrchr
libinvm-cim.so.1:s_strrep_char
libinvm-cim.so.1:s_strtoui
libinvm-cim.so.1:s_strtoull
libinvm-cim.so.1:s_strtous
libinvm-cim.so.1:s_strtrim
libinvm-cim.so.1:s_strtrim_left
libinvm-cim.so.1:s_strtrim_right
libinvm-cim.so.1:todigit
libinvm-cim.so.1:truncate_us
libinvm-cim.so.1:ws_strcpy
libinvm-cim.so.1:x_strtok
libinvm-cli.so.1:_Z11dlib_suffixPcm
libinvm-cli.so.1:_Z13getOptionsMapRSt3mapINSt7__cxx1112basic_stringIcSt11char_traitsIcESaIcEEES5_St4lessIS5_ESaISt4pairIKS5_S5_EEE
libinvm-cli.so.1:_Z13getWindowSizeR10WindowSize
libinvm-cli.so.1:_Z16dlib_find_symbolPvPKc
libinvm-cli.so.1:_Z23os_readUserHiddenStringPNSt7__cxx1112basic_stringIcSt11char_traitsIcESaIcEEE
libinvm-cli.so.1:_Z9dlib_loadPKc
libinvm-cli.so.1:_ZN3cli9framework10HelpResult11setShowFullEb
libinvm-cli.so.1:_ZN3cli9framework10HelpResult13setShouldWrapEb
libinvm-cli.so.1:_ZN3cli9framework10HelpResult9push_backERKNS0_11CommandSpecE
libinvm-cli.so.1:_ZN3cli9framework10HelpResultC1Ev
libinvm-cli.so.1:_ZN3cli9framework10HelpResultC2Ev
libinvm-cli.so.1:_ZN3cli9framework10LogMessage10setMessageERKNSt7__cxx1112basic_stringIcSt11char_traitsIcESaIcEEE
libinvm-cli.so.1:_ZN3cli9framework10LogMessage11setFileNameERKNSt7__cxx1112basic_stringIcSt11char_traitsIcESaIcEEE
libinvm-cli.so.1:_ZN3cli9framework10LogMessage11setPriorityERKNS1_8PriorityE
libinvm-cli.so.1:_ZN3cli9framework10LogMessage13setLineNumberERKi
libinvm-cli.so.1:_ZN3cli9framework10LogMessageC1ENS1_8PriorityENSt7__cxx1112basic_stringIcSt11char_traitsIcESaIcEEE
libinvm-cli.so.1:_ZN3cli9framework10LogMessageC1Ev
libinvm-cli.so.1:_ZN3cli9framework10LogMessageC2ENS1_8PriorityENSt7__cxx1112basic_stringIcSt11char_traitsIcESaIcEEE
libinvm-cli.so.1:_ZN3cli9framework10LogMessageC2Ev
libinvm-cli.so.1:_ZN3cli9framework10ResultBase12setErrorCodeEi
libinvm-cli.so.1:_ZN3cli9framework10ResultBase13getOutputTypeEv
libinvm-cli.so.1:_ZN3cli9framework10ResultBase13setOutputTypeENS1_11outputTypesE
libinvm-cli.so.1:_ZN3cli9framework10ResultBase15setOutputOptionERKNS0_13OutputOptionsE
libinvm-cli.so.1:_ZN3cli9framework10ResultBase17stringFromArgListB5cxx11EPKcz
libinvm-cli.so.1:_ZN3cli9framework10ResultBaseC1Ev
libinvm-cli.so.1:_ZN3cli9framework10ResultBaseC2Ev
libinvm-cli.so.1:_ZN3cli9framework11CommandSpec10setFeatureEPv
libinvm-cli.so.1:_ZN3cli9framework11CommandSpec11addPropertyERKNS0_15CommandSpecPartE
libinvm-cli.so.1:_ZN3cli9framework11CommandSpec11addPropertyERKNSt7__cxx1112basic_stringIcSt11char_traitsIcESaIcEEEbS9_bS9_
libinvm-cli.so.1:_ZN3cli9framework11CommandSpec22getCommandSpecPartListENS0_9TokenTypeE
libinvm-cli.so.1:_ZN3cli9framework11CommandSpec7addPartERSt6vectorINS0_15CommandSpecPartESaIS3_EERKS3_
libinvm-cli.so.1:_ZN3cli9framework11CommandSpec9addOptionERKNS0_15CommandSpecPartE
libinvm-cli.so.1:_ZN3cli9framework11CommandSpec9addOptionERKNSt7__cxx1112basic_stringIcSt11char_traitsIcESaIcEEEbS9_bS9_S9_
libinvm-cli.so.1:_ZN3cli9framework11CommandSpec9addTargetERKNS0_15CommandSpecPartE
libinvm-cli.so.1:_ZN3cli9framework11CommandSpec9addTargetERKNSt7__cxx1112basic_stringIcSt11char_traitsIcESaIcEEEbS9_bS9_
libinvm-cli.so.1:_ZN3cli9framework11CommandSpecC1EiNSt7__cxx1112basic_stringIcSt11char_traitsIcESaIcEEES7_S7_
libinvm-cli.so.1:_ZN3cli9framework11CommandSpecC1Ev
libinvm-cli.so.1:_ZN3cli9framework11CommandSpecC2EiNSt7__cxx1112basic_stringIcSt11char_traitsIcESaIcEEES7_S7_
libinvm-cli.so.1:_ZN3cli9framework11CommandSpecC2Ev
libinvm-cli.so.1:_ZN3cli9framework11ErrorResultC1ENSt7__cxx1112basic_stringIcSt11char_traitsIcESaIcEEE
libinvm-cli.so.1:_ZN3cli9framework11ErrorResultC1EiNSt7__cxx1112basic_stringIcSt11char_traitsIcESaIcEEES7_
libinvm-cli.so.1:_ZN3cli9framework11ErrorResultC2ENSt7__cxx1112basic_stringIcSt11char_traitsIcESaIcEEE
libinvm-cli.so.1:_ZN3cli9framework11ErrorResultC2EiNSt7__cxx1112basic_stringIcSt11char_traitsIcESaIcEEES7_
libinvm-cli.so.1:_ZN3cli9framework11FeatureBase17checkUserResponseEv
libinvm-cli.so.1:_ZN3cli9framework11FeatureBase17promptUserYesOrNoENSt7__cxx1112basic_stringIcSt11char_traitsIcESaIcEEE
libinvm-cli.so.1:_ZN3cli9framework11FeatureBase20readUserHiddenStringEPNSt7__cxx1112basic_stringIcSt11char_traitsIcESaIcEEE
libinvm-cli.so.1:_ZN3cli9framework11FeatureBase22promptUserHiddenStringENSt7__cxx1112basic_stringIcSt11char_traitsIcESaIcEEE
libinvm-cli.so.1:_ZN3cli9framework11FeatureBaseC1Ev
libinvm-cli.so.1:_ZN3cli9framework11FeatureBaseC2Ev
libinvm-cli.so.1:_ZN3cli9framework11HelpFeature16matchCommandNameENSt7__cxx1112basic_stringIcSt11char_traitsIcESaIcEEES7_
libinvm-cli.so.1:_ZN3cli9framework11HelpFeature3runERKiRKNS0_13ParsedCommandE
libinvm-cli.so.1:_ZN3cli9framework11HelpFeature8getPathsERSt6vectorINS0_11CommandSpecESaIS3_EE
libinvm-cli.so.1:_ZN3cli9framework11HelpFeatureC1ENS0_11CommandSpecE
libinvm-cli.so.1:_ZN3cli9framework11HelpFeatureC1Ev
libinvm-cli.so.1:_ZN3cli9framework11HelpFeatureC2ENS0_11CommandSpecE
libinvm-cli.so.1:_ZN3cli9framework11HelpFeatureC2Ev
libinvm-cli.so.1:_ZN3cli9framework12SimpleResultC1ERKNSt7__cxx1112basic_stringIcSt11char_traitsIcESaIcEEE
libinvm-cli.so.1:_ZN3cli9framework12SimpleResultC2ERKNSt7__cxx1112basic_stringIcSt11char_traitsIcESaIcEEE
libinvm-cli.so.1:_ZN3cli9framework13CommandFilter12filterOnVerbERSt6vectorINS0_11CommandSpecESaIS3_EE
libinvm-cli.so.1:_ZN3cli9framework13CommandFilter13decideUnknownERSt6vectorINS0_11CommandSpecESaIS3_EE
libinvm-cli.so.1:_ZN3cli9framework13CommandFilter13removeCommandERSt6vectorINS0_11CommandSpecESaIS3_EEm
libinvm-cli.so.1:_ZN3cli9framework13CommandFilter17setUnknownAsValueEv
libinvm-cli.so.1:_ZN3cli9framework13CommandFilter18filterOnParsedListERSt6vectorINS0_11CommandSpecESaIS3_EERKNS0_19CommandSpecPartTypeE
libinvm-cli.so.1:_ZN3cli9framework13CommandFilter18hasUnknownPropertyEv
libinvm-cli.so.1:_ZN3cli9framework13CommandFilter19shouldRemoveCommandERbRKSt6vectorINS0_15CommandSpecPartESaIS4_EERKNS0_19CommandSpecPartTypeE
libinvm-cli.so.1:_ZN3cli9framework13CommandFilter20setUnknownAsPropertyEv
libinvm-cli.so.1:_ZN3cli9framework13CommandFilter21getLastErasedCommandsEv
libinvm-cli.so.1:_ZN3cli9framework13CommandFilter25filterOnUnMetRequirementsERSt6vectorINS0_11CommandSpecESaIS3_EE
libinvm-cli.so.1:_ZN3cli9framework13CommandFilter6filterERSt6vectorINS0_11CommandSpecESaIS3_EE
libinvm-cli.so.1:_ZN3cli9framework13CommandFilterC1ERNS0_13ParsedCommandE
libinvm-cli.so.1:_ZN3cli9framework13CommandFilterC1ERNS0_13ParsedCommandERNS0_15UnknownPropertyE
libinvm-cli.so.1:_ZN3cli9framework13CommandFilterC2ERNS0_13ParsedCommandE
libinvm-cli.so.1:_ZN3cli9framework13CommandFilterC2ERNS0_13ParsedCommandERNS0_15UnknownPropertyE
libinvm-cli.so.1:_ZN3cli9framework13CommandVerify19verifyCommonOptionsERKNS0_13ParsedCommandE
libinvm-cli.so.1:_ZN3cli9framework13CommandVerify20verifyRequiredValuesERKNS0_13ParsedCommandERKNS0_11CommandSpecE
libinvm-cli.so.1:_ZN3cli9framework13CommandVerify20verifyRequiredValuesERKSt6vectorINS0_15CommandSpecPartESaIS3_EERKSt3mapINSt7__cxx1112basic_stringIcSt11char_traitsIcESaIcEEESE_St4lessISE_ESaISt4pairIKSE_SE_EEENS0_9TokenTypeE
libinvm-cli.so.1:_ZN3cli9framework13CommandVerify6verifyERKNS0_13ParsedCommandERKNS0_11CommandSpecE
libinvm-cli.so.1:_ZN3cli9framework13OutputOptions10setVerboseEv
libinvm-cli.so.1:_ZN3cli9framework13OutputOptions15setOutputFormatEv
libinvm-cli.so.1:_ZN3cli9framework13OutputOptionsC1ERKNS0_13ParsedCommandE
libinvm-cli.so.1:_ZN3cli9framework13OutputOptionsC2ERKNS0_13ParsedCommandE
libinvm-cli.so.1:_ZN3cli9framework13StreamChannel5writeERKNS0_10LogMessageE
libinvm-cli.so.1:_ZN3cli9framework13getTokenIndexERKNSt7__cxx1112basic_stringIcSt11char_traitsIcESaIcEEERKSt6vectorINS0_15CommandSpecPartESaISA_EE
libinvm-cli.so.1:_ZN3cli9framework13stringsIEqualERKNSt7__cxx1112basic_stringIcSt11char_traitsIcESaIcEEES8_
libinvm-cli.so.1:_ZN3cli9framework14tokenizeStringB5cxx11EPKcc
libinvm-cli.so.1:_ZN3cli9framework15stringIsNumericERKNSt7__cxx1112basic_stringIcSt11char_traitsIcESaIcEEE
libinvm-cli.so.1:_ZN3cli9framework16ObjectListResult10objectsEndB5cxx11Ev
libinvm-cli.so.1:_ZN3cli9framework16ObjectListResult12objectsBeginB5cxx11Ev
libinvm-cli.so.1:_ZN3cli9framework16ObjectListResult6insertERKNSt7__cxx1112basic_stringIcSt11char_traitsIcESaIcEEERNS0_18PropertyListResultE
libinvm-cli.so.1:_ZN3cli9framework16ObjectListResult7setRootERKNSt7__cxx1112basic_stringIcSt11char_traitsIcESaIcEEE
libinvm-cli.so.1:_ZN3cli9framework16ObjectListResultC1Ev
libinvm-cli.so.1:_ZN3cli9framework16ObjectListResultC2Ev
libinvm-cli.so.1:_ZN3cli9framework16ParseErrorResult21setInvalidTokenResultERNS0_5TokenE
libinvm-cli.so.1:_ZN3cli9framework16ParseErrorResultC1ENS0_5TokenE
libinvm-cli.so.1:_ZN3cli9framework16ParseErrorResultC1ENSt7__cxx1112basic_stringIcSt11char_traitsIcESaIcEEENS0_9TokenTypeE
libinvm-cli.so.1:_ZN3cli9framework16ParseErrorResultC1Ev
libinvm-cli.so.1:_ZN3cli9framework16ParseErrorResultC2ENS0_5TokenE
libinvm-cli.so.1:_ZN3cli9framework16ParseErrorResultC2ENSt7__cxx1112basic_stringIcSt11char_traitsIcESaIcEEENS0_9TokenTypeE
libinvm-cli.so.1:_ZN3cli9framework16ParseErrorResultC2Ev
libinvm-cli.so.1:_ZN3cli9framework16SimpleListResult10resultsEndEv
libinvm-cli.so.1:_ZN3cli9framework16SimpleListResult12resultsBeginEv
libinvm-cli.so.1:_ZN3cli9framework16SimpleListResult6insertEPNS0_12SimpleResultE
libinvm-cli.so.1:_ZN3cli9framework16SimpleListResult6insertERKNSt7__cxx1112basic_stringIcSt11char_traitsIcESaIcEEE
libinvm-cli.so.1:_ZN3cli9framework16SimpleListResult8getCountEv
libinvm-cli.so.1:_ZN3cli9framework16SimpleListResultC1Ev
libinvm-cli.so.1:_ZN3cli9framework16SimpleListResultC2Ev
libinvm-cli.so.1:_ZN3cli9framework16SimpleListResultD0Ev
libinvm-cli.so.1:_ZN3cli9framework16SimpleListResultD1Ev
libinvm-cli.so.1:_ZN3cli9framework16SimpleListResultD2Ev
libinvm-cli.so.1:_ZN3cli9framework17SyntaxErrorResult20getPotentialCommandsEv
libinvm-cli.so.1:_ZN3cli9framework17SyntaxErrorResult20setPotentialCommandsESt6vectorINS0_11CommandSpecESaIS3_EE
libinvm-cli.so.1:_ZN3cli9framework17SyntaxErrorResultC1ENSt7__cxx1112basic_stringIcSt11char_traitsIcESaIcEEE
libinvm-cli.so.1:_ZN3cli9framework17SyntaxErrorResultC1Ev
libinvm-cli.so.1:_ZN3cli9framework17SyntaxErrorResultC2ENSt7__cxx1112basic_stringIcSt11char_traitsIcESaIcEEE
libinvm-cli.so.1:_ZN3cli9framework17SyntaxErrorResultC2Ev
libinvm-cli.so.1:_ZN3cli9framework17tokenTypeToStringB5cxx11ENS0_9TokenTypeE
libinvm-cli.so.1:_ZN3cli9framework18NoInputErrorResultC1Ev
libinvm-cli.so.1:_ZN3cli9framework18NoInputErrorResultC2Ev
libinvm-cli.so.1:_ZN3cli9framework18PropertyListResult6insertENSt7__cxx1112basic_stringIcSt11char_traitsIcESaIcEEEPNS0_11ErrorResultE
libinvm-cli.so.1:_ZN3cli9framework18PropertyListResult6insertENSt7__cxx1112basic_stringIcSt11char_traitsIcESaIcEEES7_
libinvm-cli.so.1:_ZN3cli9framework18PropertyListResult7setNameENSt7__cxx1112basic_stringIcSt11char_traitsIcESaIcEEE
libinvm-cli.so.1:_ZN3cli9framework18PropertyListResult8containsENSt7__cxx1112basic_stringIcSt11char_traitsIcESaIcEEE
libinvm-cli.so.1:_ZN3cli9framework18PropertyListResult8getCountEv
libinvm-cli.so.1:_ZN3cli9framework18PropertyListResultC1Ev
libinvm-cli.so.1:_ZN3cli9framework18PropertyListResultC2Ev
libinvm-cli.so.1:_ZN3cli9framework18PropertyListResultixERKNSt7__cxx1112basic_stringIcSt11char_traitsIcESaIcEEE
libinvm-cli.so.1:_ZN3cli9framework21getValidOutputFormatsB5cxx11Ev
libinvm-cli.so.1:_ZN3cli9framework21getValidOutputOptionsB5cxx11Ev
libinvm-cli.so.1:_ZN3cli9framework21parsedCommandContainsERKNS0_13ParsedCommandERKNS0_15CommandSpecPartE
libinvm-cli.so.1:_ZN3cli9framework22OutputOptionsValidator13isValidOptionERKNSt7__cxx1112basic_stringIcSt11char_traitsIcESaIcEEE
libinvm-cli.so.1:_ZN3cli9framework22OutputOptionsValidator14isFormatOptionERKNSt7__cxx1112basic_stringIcSt11char_traitsIcESaIcEEE
libinvm-cli.so.1:_ZN3cli9framework22OutputOptionsValidator21outputOptionsAreValidEv
libinvm-cli.so.1:_ZN3cli9framework22OutputOptionsValidator28checkOutputOptionConsistencyEv
libinvm-cli.so.1:_ZN3cli9framework22OutputOptionsValidator29conflictingOutputOptionsExistEv
libinvm-cli.so.1:_ZN3cli9framework22OutputOptionsValidator30checkForDuplicateOutputOptionsEv
libinvm-cli.so.1:_ZN3cli9framework22OutputOptionsValidator8validateEv
libinvm-cli.so.1:_ZN3cli9framework22OutputOptionsValidatorC1ERKNS0_13ParsedCommandE
libinvm-cli.so.1:_ZN3cli9framework22OutputOptionsValidatorC2ERKNS0_13ParsedCommandE
libinvm-cli.so.1:_ZN3cli9framework25DuplicateTokenErrorResult23setDuplicateTokenResultERNS0_5TokenE
libinvm-cli.so.1:_ZN3cli9framework25DuplicateTokenErrorResultC1ENS0_5TokenE
libinvm-cli.so.1:_ZN3cli9framework25DuplicateTokenErrorResultC1ENSt7__cxx1112basic_stringIcSt11char_traitsIcESaIcEEENS0_9TokenTypeE
libinvm-cli.so.1:_ZN3cli9framework25DuplicateTokenErrorResultC2ENS0_5TokenE
libinvm-cli.so.1:_ZN3cli9framework25DuplicateTokenErrorResultC2ENSt7__cxx1112basic_stringIcSt11char_traitsIcESaIcEEENS0_9TokenTypeE
libinvm-cli.so.1:_ZN3cli9framework25NotImplementedErrorResult14getFeatureNameB5cxx11Ev
libinvm-cli.so.1:_ZN3cli9framework25NotImplementedErrorResult16getCommandSpecIdEv
libinvm-cli.so.1:_ZN3cli9framework25NotImplementedErrorResultC1EiRKNSt7__cxx1112basic_stringIcSt11char_traitsIcESaIcEEE
libinvm-cli.so.1:_ZN3cli9framework25NotImplementedErrorResultC2EiRKNSt7__cxx1112basic_stringIcSt11char_traitsIcESaIcEEE
libinvm-cli.so.1:_ZN3cli9framework25SyntaxErrorBadValueResultC1ENS0_9TokenTypeENSt7__cxx1112basic_stringIcSt11char_traitsIcESaIcEEERKS8_
libinvm-cli.so.1:_ZN3cli9framework25SyntaxErrorBadValueResultC2ENS0_9TokenTypeENSt7__cxx1112basic_stringIcSt11char_traitsIcESaIcEEERKS8_
libinvm-cli.so.1:_ZN3cli9framework29SyntaxErrorMissingValueResultC1ENS0_9TokenTypeENSt7__cxx1112basic_stringIcSt11char_traitsIcESaIcEEE
libinvm-cli.so.1:_ZN3cli9framework29SyntaxErrorMissingValueResultC2ENS0_9TokenTypeENSt7__cxx1112basic_stringIcSt11char_traitsIcESaIcEEE
libinvm-cli.so.1:_ZN3cli9framework32SyntaxErrorUnexpectedValueResultC1ENS0_9TokenTypeENSt7__cxx1112basic_stringIcSt11char_traitsIcESaIcEEE
libinvm-cli.so.1:_ZN3cli9framework32SyntaxErrorUnexpectedValueResultC2ENS0_9TokenTypeENSt7__cxx1112basic_stringIcSt11char_traitsIcESaIcEEE
libinvm-cli.so.1:_ZN3cli9framework4trimERKNSt7__cxx1112basic_stringIcSt11char_traitsIcESaIcEEE
libinvm-cli.so.1:_ZN3cli9framework5Lexer8tokenizeERKSt6vectorINSt7__cxx1112basic_stringIcSt11char_traitsIcESaIcEEESaIS8_EE
libinvm-cli.so.1:_ZN3cli9framework5Lexer8tokenizeEiPPKc
libinvm-cli.so.1:_ZN3cli9framework5LexerC1ERKSt6vectorINSt7__cxx1112basic_stringIcSt11char_traitsIcESaIcEEESaIS8_EESC_SC_SC_
libinvm-cli.so.1:_ZN3cli9framework5LexerC2ERKSt6vectorINSt7__cxx1112basic_stringIcSt11char_traitsIcESaIcEEESaIS8_EESC_SC_SC_
libinvm-cli.so.1:_ZN3cli9framework5TraceC1EPKcS3_RKi
libinvm-cli.so.1:_ZN3cli9framework5TraceC2EPKcS3_RKi
libinvm-cli.so.1:_ZN3cli9framework5TraceD1Ev
libinvm-cli.so.1:_ZN3cli9framework5TraceD2Ev
libinvm-cli.so.1:_ZN3cli9framework6Logger10getChannelEv
libinvm-cli.so.1:_ZN3cli9framework6Logger10setChannelEPNS0_14LogChannelBaseE
libinvm-cli.so.1:_ZN3cli9framework6Logger3logERKNS0_10LogMessage8PriorityERKNSt7__cxx1112basic_stringIcSt11char_traitsIcESaIcEEE
libinvm-cli.so.1:_ZN3cli9framework6Logger3logERKNS0_10LogMessageE
libinvm-cli.so.1:_ZN3cli9framework6Logger5flushEv
libinvm-cli.so.1:_ZN3cli9framework6Logger5traceERKNSt7__cxx1112basic_stringIcSt11char_traitsIcESaIcEEE
libinvm-cli.so.1:_ZN3cli9framework6Logger5traceERKNSt7__cxx1112basic_stringIcSt11char_traitsIcESaIcEEES9_RKi
libinvm-cli.so.1:_ZN3cli9framework6Logger8setLevelERKNS0_10LogMessage8PriorityE
libinvm-cli.so.1:_ZN3cli9framework6Parser10initializeEv
libinvm-cli.so.1:_ZN3cli9framework6Parser10stateCommaEiRKSt6vectorINS0_5TokenESaIS3_EENS0_9TokenTypeE
libinvm-cli.so.1:_ZN3cli9framework6Parser11stateEqualsEiRKSt6vectorINS0_5TokenESaIS3_EE
libinvm-cli.so.1:_ZN3cli9framework6Parser11stateOptionEiRKSt6vectorINS0_5TokenESaIS3_EE
libinvm-cli.so.1:_ZN3cli9framework6Parser11stateTargetEiRKSt6vectorINS0_5TokenESaIS3_EE
libinvm-cli.so.1:_ZN3cli9framework6Parser13statePropertyEiRKSt6vectorINS0_5TokenESaIS3_EE
libinvm-cli.so.1:_ZN3cli9framework6Parser14getOptionValueERKNS0_13ParsedCommandERKNSt7__cxx1112basic_stringIcSt11char_traitsIcESaIcEEEPb
libinvm-cli.so.1:_ZN3cli9framework6Parser14getTargetValueERKNS0_13ParsedCommandERKNSt7__cxx1112basic_stringIcSt11char_traitsIcESaIcEEEPb
libinvm-cli.so.1:_ZN3cli9framework6Parser15getTargetValuesERKNS0_13ParsedCommandERKNSt7__cxx1112basic_stringIcSt11char_traitsIcESaIcEEEPb
libinvm-cli.so.1:_ZN3cli9framework6Parser16createParseErrorERKNS0_5TokenE
libinvm-cli.so.1:_ZN3cli9framework6Parser16getParsedCommandEv
libinvm-cli.so.1:_ZN3cli9framework6Parser16getPropertyValueERKNS0_13ParsedCommandERKNSt7__cxx1112basic_stringIcSt11char_traitsIcESaIcEEEPb
libinvm-cli.so.1:_ZN3cli9framework6Parser16stateOptionValueEiRKSt6vectorINS0_5TokenESaIS3_EE
libinvm-cli.so.1:_ZN3cli9framework6Parser16stateTargetValueEiRKSt6vectorINS0_5TokenESaIS3_EE
libinvm-cli.so.1:_ZN3cli9framework6Parser18statePropertyValueEiRKSt6vectorINS0_5TokenESaIS3_EE
libinvm-cli.so.1:_ZN3cli9framework6Parser19resolveOutputOptionEPNS0_17SyntaxErrorResultERKSt6vectorINS0_5TokenESaIS5_EE
libinvm-cli.so.1:_ZN3cli9framework6Parser20setUnknownPropertyToERKNSt7__cxx1112basic_stringIcSt11char_traitsIcESaIcEEES9_S9_RKNS0_19CommandSpecPartTypeE
libinvm-cli.so.1:_ZN3cli9framework6Parser25createDuplicateTokenErrorERKNS0_5TokenE
libinvm-cli.so.1:_ZN3cli9framework6Parser26stateOptionValueOrPropertyEiRKSt6vectorINS0_5TokenESaIS3_EE
libinvm-cli.so.1:_ZN3cli9framework6Parser26stateTargetValueOrPropertyEiRKSt6vectorINS0_5TokenESaIS3_EE
libinvm-cli.so.1:_ZN3cli9framework6Parser28statePropertyOrPropertyValueEiRKSt6vectorINS0_5TokenESaIS3_EE
libinvm-cli.so.1:_ZN3cli9framework6Parser35includePotentialCommandsIsRequestedEv
libinvm-cli.so.1:_ZN3cli9framework6Parser5parseERKSt6vectorINS0_5TokenESaIS3_EE
libinvm-cli.so.1:_ZN3cli9framework6Parser8getValueERKSt3mapINSt7__cxx1112basic_stringIcSt11char_traitsIcESaIcEEES8_St4lessIS8_ESaISt4pairIKS8_S8_EEERSC_Pb
libinvm-cli.so.1:_ZN3cli9framework6Parser9stateVerbEiRKSt6vectorINS0_5TokenESaIS3_EE
libinvm-cli.so.1:_ZN3cli9framework6ParserC1Ev
libinvm-cli.so.1:_ZN3cli9framework6ParserC2Ev
libinvm-cli.so.1:_ZN3cli9framework7toLowerERKNSt7__cxx1112basic_stringIcSt11char_traitsIcESaIcEEE
libinvm-cli.so.1:_ZN3cli9framework9Framework12getFrameworkEv
libinvm-cli.so.1:_ZN3cli9framework9Framework13removeFeatureENSt7__cxx1112basic_stringIcSt11char_traitsIcESaIcEEE
libinvm-cli.so.1:_ZN3cli9framework9Framework15registerFeatureENSt7__cxx1112basic_stringIcSt11char_traitsIcESaIcEEEPNS0_11FeatureBaseE
libinvm-cli.so.1:_ZN3cli9framework9Framework16clearFeatureListEv
libinvm-cli.so.1:_ZN3cli9framework9Framework17addDefaultOptionsERNS0_11CommandSpecE
libinvm-cli.so.1:_ZN3cli9framework9Framework17getCommandFeatureERKNS0_11CommandSpecE
libinvm-cli.so.1:_ZN3cli9framework9Framework18tokenArrayToStringB5cxx11ESt6vectorINS0_5TokenESaIS3_EE
libinvm-cli.so.1:_ZN3cli9framework9Framework18tokenArrayToStringB5cxx11EiPPKc
libinvm-cli.so.1:_ZN3cli9framework9Framework21getRegisteredCommandsEv
libinvm-cli.so.1:_ZN3cli9framework9Framework7executeERKSt6vectorINSt7__cxx1112basic_stringIcSt11char_traitsIcESaIcEEESaIS8_EE
libinvm-cli.so.1:_ZN3cli9framework9Framework7executeEiPPKc
libinvm-cli.so.1:_ZN3cli9framework9Framework8tokenizeEiPPKcSt6vectorINS0_11CommandSpecESaIS6_EE
libinvm-cli.so.1:_ZNK3cli9framework10HelpResult10listToJsonENSt7__cxx1112basic_stringIcSt11char_traitsIcESaIcEEESt6vectorINS0_15CommandSpecPartESaIS9_EE
libinvm-cli.so.1:_ZNK3cli9framework10HelpResult10outputJsonB5cxx11Ev
libinvm-cli.so.1:_ZNK3cli9framework10HelpResult10outputTextB5cxx11Ev
libinvm-cli.so.1:_ZNK3cli9framework10HelpResult11getShowFullEv
libinvm-cli.so.1:_ZNK3cli9framework10HelpResult12listToStringB5cxx11ESt6vectorINS0_15CommandSpecPartESaIS3_EEbmm
libinvm-cli.so.1:_ZNK3cli9framework10HelpResult12outputEsxXmlB5cxx11Ev
libinvm-cli.so.1:_ZNK3cli9framework10HelpResult19consolidateToColumnEmmNSt7__cxx1112basic_stringIcSt11char_traitsIcESaIcEEE
libinvm-cli.so.1:_ZNK3cli9framework10HelpResult23CommandSpecPartToStringB5cxx11ENS0_15CommandSpecPartEb
libinvm-cli.so.1:_ZNK3cli9framework10HelpResult4wrapENSt7__cxx1112basic_stringIcSt11char_traitsIcESaIcEEEm
libinvm-cli.so.1:_ZNK3cli9framework10HelpResult8getCountEv
libinvm-cli.so.1:_ZNK3cli9framework10HelpResult9listToXmlENSt7__cxx1112basic_stringIcSt11char_traitsIcESaIcEEES7_St6vectorINS0_15CommandSpecPartESaIS9_EE
libinvm-cli.so.1:_ZNK3cli9framework10HelpResult9outputXmlB5cxx11Ev
libinvm-cli.so.1:_ZNK3cli9framework10LogMessage10getMessageB5cxx11Ev
libinvm-cli.so.1:_ZNK3cli9framework10LogMessage11getFileNameB5cxx11Ev
libinvm-cli.so.1:_ZNK3cli9framework10LogMessage11getPriorityEv
libinvm-cli.so.1:_ZNK3cli9framework10LogMessage13getLineNumberEv
libinvm-cli.so.1:_ZNK3cli9framework10ResultBase12getErrorCodeEv
libinvm-cli.so.1:_ZNK3cli9framework10ResultBase15outputTextTableB5cxx11Ev
libinvm-cli.so.1:_ZNK3cli9framework10ResultBase17outputEsxXmlTableB5cxx11Ev
libinvm-cli.so.1:_ZNK3cli9framework10ResultBase6outputB5cxx11Ev
libinvm-cli.so.1:_ZNK3cli9framework11CommandSpec10getFeatureEv
libinvm-cli.so.1:_ZNK3cli9framework11CommandSpec12listToStringB5cxx11ERKSt6vectorINS0_15CommandSpecPartESaIS3_EEb
libinvm-cli.so.1:_ZNK3cli9framework11CommandSpec5asStrB5cxx11Ev
libinvm-cli.so.1:_ZNK3cli9framework11ErrorResult10outputJsonB5cxx11Ev
libinvm-cli.so.1:_ZNK3cli9framework11ErrorResult10outputTextB5cxx11Ev
libinvm-cli.so.1:_ZNK3cli9framework11ErrorResult12outputEsxXmlB5cxx11Ev
libinvm-cli.so.1:_ZNK3cli9framework11ErrorResult14getErrorStringB5cxx11Ev
libinvm-cli.so.1:_ZNK3cli9framework11ErrorResult9outputXmlB5cxx11Ev
libinvm-cli.so.1:_ZNK3cli9framework12SimpleResult10outputJsonB5cxx11Ev
libinvm-cli.so.1:_ZNK3cli9framework12SimpleResult10outputTextB5cxx11Ev
libinvm-cli.so.1:_ZNK3cli9framework12SimpleResult12outputEsxXmlB5cxx11Ev
libinvm-cli.so.1:_ZNK3cli9framework12SimpleResult9outputXmlB5cxx11Ev
libinvm-cli.so.1:_ZNK3cli9framework13CommandFilter19getParsedListOfTypeB5cxx11ERKNS0_19CommandSpecPartTypeE
libinvm-cli.so.1:_ZNK3cli9framework13CommandFilter23getParsedListTypeStringB5cxx11ERKNS0_19CommandSpecPartTypeE
libinvm-cli.so.1:_ZNK3cli9framework13CommandFilter24getCommandPartListOfTypeERKNS0_19CommandSpecPartTypeERKNS0_11CommandSpecE
libinvm-cli.so.1:_ZNK3cli9framework13CommandFilter28anyCommandHasUnknownPropertyERKSt6vectorINS0_11CommandSpecESaIS3_EE
libinvm-cli.so.1:_ZNK3cli9framework13CommandFilter30unknownLexemeIsAlreadyPropertyEv
libinvm-cli.so.1:_ZNK3cli9framework13OutputOptions10getVerboseEv
libinvm-cli.so.1:_ZNK3cli9framework13OutputOptions13getOutputTypeB5cxx11Ev
libinvm-cli.so.1:_ZNK3cli9framework16ObjectListResult10outputJsonB5cxx11Ev
libinvm-cli.so.1:_ZNK3cli9framework16ObjectListResult10outputTextB5cxx11Ev
libinvm-cli.so.1:_ZNK3cli9framework16ObjectListResult12outputEsxXmlB5cxx11Ev
libinvm-cli.so.1:_ZNK3cli9framework16ObjectListResult14getColumnWidthENSt7__cxx1112basic_stringIcSt11char_traitsIcESaIcEEE
libinvm-cli.so.1:_ZNK3cli9framework16ObjectListResult15outputTextTableB5cxx11Ev
libinvm-cli.so.1:_ZNK3cli9framework16ObjectListResult17outputEsxXmlTableB5cxx11Ev
libinvm-cli.so.1:_ZNK3cli9framework16ObjectListResult8getCountEv
libinvm-cli.so.1:_ZNK3cli9framework16ObjectListResult9outputXmlB5cxx11Ev
libinvm-cli.so.1:_ZNK3cli9framework16SimpleListResult10outputJsonB5cxx11Ev
libinvm-cli.so.1:_ZNK3cli9framework16SimpleListResult10outputTextB5cxx11Ev
libinvm-cli.so.1:_ZNK3cli9framework16SimpleListResult12outputEsxXmlB5cxx11Ev
libinvm-cli.so.1:_ZNK3cli9framework16SimpleListResult9outputXmlB5cxx11Ev
libinvm-cli.so.1:_ZNK3cli9framework17SyntaxErrorResult10outputJsonB5cxx11Ev
libinvm-cli.so.1:_ZNK3cli9framework17SyntaxErrorResult10outputTextB5cxx11Ev
libinvm-cli.so.1:_ZNK3cli9framework17SyntaxErrorResult12outputEsxXmlB5cxx11Ev
libinvm-cli.so.1:_ZNK3cli9framework17SyntaxErrorResult9outputXmlB5cxx11Ev
libinvm-cli.so.1:_ZNK3cli9framework18PropertyListResult10outputJsonB5cxx11Ev
libinvm-cli.so.1:_ZNK3cli9framework18PropertyListResult10outputTextB5cxx11Ev
libinvm-cli.so.1:_ZNK3cli9framework18PropertyListResult12outputEsxXmlB5cxx11Ev
libinvm-cli.so.1:_ZNK3cli9framework18PropertyListResult13propertiesEndEv
libinvm-cli.so.1:_ZNK3cli9framework18PropertyListResult15propertiesBeginEv
libinvm-cli.so.1:_ZNK3cli9framework18PropertyListResult17outputEsxXmlTableB5cxx11Ev
libinvm-cli.so.1:_ZNK3cli9framework18PropertyListResult9outputXmlB5cxx11Ev
libinvm-cli.so.1:_ZNK3cli9framework6Logger8getLevelEv
libinvm-i18n.so.1:Intel_bindtextdomain
libinvm-i18n.so.1:Intel_gettext
libinvm-i18n.so.1:Intel_textdomain
libinvm-i18n.so.1:add_domain_binding
libinvm-i18n.so.1:find_domain_binding
libinvm-i18n.so.1:get_catalog_file
libinvm-i18n.so.1:get_lang_env
libinvm-i18n.so.1:get_locale
libinvm-i18n.so.1:get_separator
libinvm-i18n.so.1:lib_unload
libinvm-i18n.so.1:my_mmap
libinvm-i18n.so.1:my_munmap
libinvm-i18n.so.1:safe_strchr
libinvm-i18n.so.1:safe_strncat
libinvm-i18n.so.1:safe_strncmp
libinvm-i18n.so.1:safe_strncpy
libinvm-i18n.so.1:safe_strndup
libinvm-i18n.so.1:safe_strnlen
libinvm-i18n.so.1:safe_strnstrn
libinvm-i18n.so.1:set_domain_binding
